; Function Attrs: mustprogress uwtable
define range(i32 -255, 256) i32 @uprv_compareEBCDICPropertyNames_77(ptr noundef readonly captures(none) %0, ptr noundef readonly captures(none) %1) local_unnamed_addr #0 {
  br label %3

3:                                                ; preds = %34, %2
  %.015 = phi ptr [ %1, %2 ], [ %40, %34 ]
  %.014 = phi ptr [ %0, %2 ], [ %37, %34 ]
  br label %.critedge.i

.critedge.i:                                      ; preds = %.critedge.i.backedge, %3
  %indvars.iv.i = phi i64 [ 0, %3 ], [ %indvars.iv.next.i, %.critedge.i.backedge ]
  %indvars.iv.next.i = add nuw nsw i64 %indvars.iv.i, 1
  %4 = getelementptr inbounds nuw i8, ptr %.014, i64 %indvars.iv.i
  %5 = load i8, ptr %4, align 1, !tbaa !3
  switch i8 %5, label %6 [
    i8 109, label %.critedge.i.backedge
    i8 96, label %.critedge.i.backedge
    i8 64, label %.critedge.i.backedge
    i8 37, label %.critedge.i.backedge
    i8 21, label %.critedge.i.backedge
    i8 13, label %.critedge.i.backedge
    i8 12, label %.critedge.i.backedge
    i8 11, label %.critedge.i.backedge
    i8 5, label %.critedge.i.backedge
    i8 0, label %12
  ]

.critedge.i.backedge:                             ; preds = %.critedge.i, %.critedge.i, %.critedge.i, %.critedge.i, %.critedge.i, %.critedge.i, %.critedge.i, %.critedge.i, %.critedge.i
  br label %.critedge.i

6:                                                ; preds = %.critedge.i
  %7 = trunc nuw i64 %indvars.iv.next.i to i32
  %8 = shl i32 %7, 8
  %9 = tail call signext i8 @uprv_ebcdictolower_77(i8 noundef signext %5)
  %10 = zext i8 %9 to i32
  %11 = or disjoint i32 %8, %10
  br label %_ZL25getEBCDICPropertyNameCharPKc.exit

12:                                               ; preds = %.critedge.i
  %13 = trunc nuw i64 %indvars.iv.next.i to i32
  %14 = shl i32 %13, 8
  br label %_ZL25getEBCDICPropertyNameCharPKc.exit

_ZL25getEBCDICPropertyNameCharPKc.exit:           ; preds = %6, %12
  %.0.i = phi i32 [ %11, %6 ], [ %14, %12 ]
  br label %.critedge.i20

.critedge.i20:                                    ; preds = %.critedge.i20.backedge, %_ZL25getEBCDICPropertyNameCharPKc.exit
  %indvars.iv.i21 = phi i64 [ 0, %_ZL25getEBCDICPropertyNameCharPKc.exit ], [ %indvars.iv.next.i22, %.critedge.i20.backedge ]
  %indvars.iv.next.i22 = add nuw nsw i64 %indvars.iv.i21, 1
  %15 = getelementptr inbounds nuw i8, ptr %.015, i64 %indvars.iv.i21
  %16 = load i8, ptr %15, align 1, !tbaa !3
  switch i8 %16, label %17 [
    i8 109, label %.critedge.i20.backedge
    i8 96, label %.critedge.i20.backedge
    i8 64, label %.critedge.i20.backedge
    i8 37, label %.critedge.i20.backedge
    i8 21, label %.critedge.i20.backedge
    i8 13, label %.critedge.i20.backedge
    i8 12, label %.critedge.i20.backedge
    i8 11, label %.critedge.i20.backedge
    i8 5, label %.critedge.i20.backedge
    i8 0, label %23
  ]

.critedge.i20.backedge:                           ; preds = %.critedge.i20, %.critedge.i20, %.critedge.i20, %.critedge.i20, %.critedge.i20, %.critedge.i20, %.critedge.i20, %.critedge.i20, %.critedge.i20
  br label %.critedge.i20

17:                                               ; preds = %.critedge.i20
  %18 = trunc nuw i64 %indvars.iv.next.i22 to i32
  %19 = shl i32 %18, 8
  %20 = tail call signext i8 @uprv_ebcdictolower_77(i8 noundef signext %16)
  %21 = zext i8 %20 to i32
  %22 = or disjoint i32 %19, %21
  br label %_ZL25getEBCDICPropertyNameCharPKc.exit25

23:                                               ; preds = %.critedge.i20
  %24 = trunc nuw i64 %indvars.iv.next.i22 to i32
  %25 = shl i32 %24, 8
  br label %_ZL25getEBCDICPropertyNameCharPKc.exit25

_ZL25getEBCDICPropertyNameCharPKc.exit25:         ; preds = %17, %23
  %.0.i23 = phi i32 [ %22, %17 ], [ %25, %23 ]
  %26 = or i32 %.0.i23, %.0.i
  %27 = and i32 %26, 255
  %28 = icmp eq i32 %27, 0
  br i1 %28, label %41, label %29

29:                                               ; preds = %_ZL25getEBCDICPropertyNameCharPKc.exit25
  %.not = icmp eq i32 %.0.i, %.0.i23
  br i1 %.not, label %34, label %30

30:                                               ; preds = %29
  %31 = and i32 %.0.i, 255
  %32 = and i32 %.0.i23, 255
  %33 = sub nsw i32 %31, %32
  %.not19 = icmp eq i32 %33, 0
  br i1 %.not19, label %34, label %41

34:                                               ; preds = %30, %29
  %35 = ashr i32 %.0.i, 8
  %36 = sext i32 %35 to i64
  %37 = getelementptr inbounds i8, ptr %.014, i64 %36
  %38 = ashr i32 %.0.i23, 8
  %39 = sext i32 %38 to i64
  %40 = getelementptr inbounds i8, ptr %.015, i64 %39
  br label %3, !llvm.loop !9

41:                                               ; preds = %30, %_ZL25getEBCDICPropertyNameCharPKc.exit25
  %.0 = phi i32 [ 0, %_ZL25getEBCDICPropertyNameCharPKc.exit25 ], [ %33, %30 ]
  ret i32 %.0
}